target datalayout = "e-m:e-p270:32:32-p271:32:32-p272:64:64-i64:64-i128:128-f80:128-n8:16:32:64-S128"
target triple = "x86_64-pc-linux-gnu"

%struct.curltime = type { i64, i32 }
%struct.Curl_llist = type { ptr, ptr, ptr, i64 }
%struct.Curl_llist_node = type { ptr, ptr, ptr, ptr }
%struct.easy_pollset = type { [5 x i32], i32, [5 x i8] }
%struct.ssl_primary_config = type { ptr, ptr, ptr, ptr, ptr, ptr, ptr, ptr, ptr, ptr, ptr, ptr, ptr, ptr, i8, i32, i8, i8 }
%struct.dynbuf = type { ptr, i64, i64, i64 }
%struct.ip_quadruple = type { [46 x i8], [46 x i8], i32, i32 }
%struct.connectdata = type { %struct.Curl_llist_node, ptr, ptr, i64, ptr, i64, ptr, ptr, %struct.hostname, ptr, ptr, %struct.hostname, %struct.proxy_info, %struct.proxy_info, %struct.ip_quadruple, %struct.ip_quadruple, ptr, ptr, ptr, ptr, ptr, %struct.curltime, %struct.curltime, %struct.curltime, [2 x i32], [2 x ptr], [2 x ptr], [2 x ptr], %struct.anon, %struct.easy_pollset, %struct.ssl_primary_config, %struct.ssl_primary_config, %struct.ConnectBits, ptr, ptr, %struct.curltime, i32, i32, %struct.Curl_llist, i32, i32, %struct.ntlmdata, %struct.ntlmdata, %union.anon.1, ptr, ptr, i16, i32, i32, i32, i32, i16, i16, i8, i8, i8, i8, i8, i8, i8 }
%struct.hostname = type { ptr, ptr, ptr, ptr }
%struct.proxy_info = type { %struct.hostname, i32, i8, ptr, ptr }
%struct.anon = type { [2 x %struct.curltime], i32 }
%struct.ConnectBits = type { i64 }
%struct.ntlmdata = type { i32, [8 x i8], i32, ptr }
%union.anon.1 = type { %struct.ftp_conn }
%struct.ftp_conn = type { %struct.pingpong, ptr, ptr, ptr, ptr, ptr, ptr, ptr, i8, i64, ptr, i64, i32, i32, i32, i32, i32, i16, i8, i8, i8, i8, i8 }
%struct.pingpong = type { i64, i8, ptr, i64, i64, %struct.curltime, i64, %struct.dynbuf, %struct.dynbuf, i64, i64, ptr, ptr }
%struct.Curl_handler = type { ptr, ptr, ptr, ptr, ptr, ptr, ptr, ptr, ptr, ptr, ptr, ptr, ptr, ptr, ptr, ptr, ptr, ptr, i32, i32, i32, i32 }

; Function Attrs: nounwind uwtable
define internal void @cpool_run_conn_shutdown_handler(ptr noundef %0, ptr noundef %1) #0 {
  %3 = alloca ptr, align 8
  %4 = alloca ptr, align 8
  store ptr %0, ptr %3, align 8, !tbaa !99
  store ptr %1, ptr %4, align 8, !tbaa !95
  %5 = load ptr, ptr %4, align 8, !tbaa !95
  %6 = getelementptr inbounds nuw %struct.connectdata, ptr %5, i32 0, i32 32
  %7 = load i64, ptr %6, align 8
  %8 = lshr i64 %7, 31
  %9 = and i64 %8, 1
  %10 = trunc i64 %9 to i32
  %11 = icmp ne i32 %10, 0
  br i1 %11, label %59, label %12

12:                                               ; preds = %2
  %13 = load ptr, ptr %4, align 8, !tbaa !95
  %14 = getelementptr inbounds nuw %struct.connectdata, ptr %13, i32 0, i32 6
  %15 = load ptr, ptr %14, align 8, !tbaa !202
  %16 = icmp ne ptr %15, null
  br i1 %16, label %17, label %21

17:                                               ; preds = %12
  %18 = load ptr, ptr %3, align 8, !tbaa !99
  %19 = load ptr, ptr %4, align 8, !tbaa !95
  %20 = getelementptr inbounds nuw %struct.connectdata, ptr %19, i32 0, i32 6
  call void @Curl_resolv_unlink(ptr noundef %18, ptr noundef %20)
  br label %21

21:                                               ; preds = %17, %12
  %22 = load ptr, ptr %4, align 8, !tbaa !95
  call void @Curl_http_auth_cleanup_ntlm(ptr noundef %22)
  %23 = load ptr, ptr %4, align 8, !tbaa !95
  %24 = getelementptr inbounds nuw %struct.connectdata, ptr %23, i32 0, i32 33
  %25 = load ptr, ptr %24, align 8, !tbaa !203
  %26 = icmp ne ptr %25, null
  br i1 %26, label %27, label %52

27:                                               ; preds = %21
  %28 = load ptr, ptr %4, align 8, !tbaa !95
  %29 = getelementptr inbounds nuw %struct.connectdata, ptr %28, i32 0, i32 33
  %30 = load ptr, ptr %29, align 8, !tbaa !203
  %31 = getelementptr inbounds nuw %struct.Curl_handler, ptr %30, i32 0, i32 12
  %32 = load ptr, ptr %31, align 8, !tbaa !204
  %33 = icmp ne ptr %32, null
  br i1 %33, label %34, label %52

34:                                               ; preds = %27
  br label %35

35:                                               ; preds = %34
  br label %36

36:                                               ; preds = %35
  %37 = load ptr, ptr %4, align 8, !tbaa !95
  %38 = getelementptr inbounds nuw %struct.connectdata, ptr %37, i32 0, i32 33
  %39 = load ptr, ptr %38, align 8, !tbaa !203
  %40 = getelementptr inbounds nuw %struct.Curl_handler, ptr %39, i32 0, i32 12
  %41 = load ptr, ptr %40, align 8, !tbaa !204
  %42 = load ptr, ptr %3, align 8, !tbaa !99
  %43 = load ptr, ptr %4, align 8, !tbaa !95
  %44 = load ptr, ptr %4, align 8, !tbaa !95
  %45 = getelementptr inbounds nuw %struct.connectdata, ptr %44, i32 0, i32 32
  %46 = load i64, ptr %45, align 8
  %47 = lshr i64 %46, 30
  %48 = and i64 %47, 1
  %49 = trunc i64 %48 to i32
  %50 = icmp ne i32 %49, 0
  %51 = call i32 %41(ptr noundef %42, ptr noundef %43, i1 noundef zeroext %50)
  br label %52

52:                                               ; preds = %36, %27, %21
  %53 = load ptr, ptr %3, align 8, !tbaa !99
  call void @Curl_resolver_cancel(ptr noundef %53)
  %54 = load ptr, ptr %4, align 8, !tbaa !95
  %55 = getelementptr inbounds nuw %struct.connectdata, ptr %54, i32 0, i32 32
  %56 = load i64, ptr %55, align 8
  %57 = and i64 %56, -2147483649
  %58 = or i64 %57, 2147483648
  store i64 %58, ptr %55, align 8
  br label %59

59:                                               ; preds = %52, %2
  ret void
}

; Function Attrs: nounwind uwtable
define internal void @cpool_run_conn_shutdown(ptr noundef %0, ptr noundef %1, ptr noundef %2) #0 {
  %4 = alloca ptr, align 8
  %5 = alloca ptr, align 8
  %6 = alloca ptr, align 8
  %7 = alloca i32, align 4
  %8 = alloca i32, align 4
  %9 = alloca i8, align 1
  %10 = alloca i8, align 1
  %11 = alloca i32, align 4
  store ptr %0, ptr %4, align 8, !tbaa !99
  store ptr %1, ptr %5, align 8, !tbaa !95
  store ptr %2, ptr %6, align 8, !tbaa !169
  call void @llvm.lifetime.start.p0(i64 4, ptr %7) #7
  call void @llvm.lifetime.start.p0(i64 4, ptr %8) #7
  call void @llvm.lifetime.start.p0(i64 1, ptr %9) #7
  call void @llvm.lifetime.start.p0(i64 1, ptr %10) #7
  br label %12

12:                                               ; preds = %3
  br label %13

13:                                               ; preds = %12
  br label %14

14:                                               ; preds = %13
  %15 = load ptr, ptr %4, align 8, !tbaa !99
  %16 = load ptr, ptr %5, align 8, !tbaa !95
  call void @cpool_run_conn_shutdown_handler(ptr noundef %15, ptr noundef %16)
  %17 = load ptr, ptr %5, align 8, !tbaa !95
  %18 = getelementptr inbounds nuw %struct.connectdata, ptr %17, i32 0, i32 32
  %19 = load i64, ptr %18, align 8
  %20 = lshr i64 %19, 32
  %21 = and i64 %20, 1
  %22 = trunc i64 %21 to i32
  %23 = icmp ne i32 %22, 0
  br i1 %23, label %24, label %26

24:                                               ; preds = %14
  %25 = load ptr, ptr %6, align 8, !tbaa !169
  store i8 1, ptr %25, align 1, !tbaa !129
  store i32 1, ptr %11, align 4
  br label %78

26:                                               ; preds = %14
  %27 = load ptr, ptr %5, align 8, !tbaa !95
  %28 = getelementptr inbounds nuw %struct.connectdata, ptr %27, i32 0, i32 58
  %29 = load i8, ptr %28, align 1, !tbaa !140
  %30 = icmp ne i8 %29, 0
  br i1 %30, label %37, label %31

31:                                               ; preds = %26
  %32 = load ptr, ptr %5, align 8, !tbaa !95
  %33 = call zeroext i1 @Curl_conn_is_connected(ptr noundef %32, i32 noundef 0)
  br i1 %33, label %34, label %37

34:                                               ; preds = %31
  %35 = load ptr, ptr %4, align 8, !tbaa !99
  %36 = call i32 @Curl_conn_shutdown(ptr noundef %35, i32 noundef 0, ptr noundef %9)
  store i32 %36, ptr %7, align 4, !tbaa !89
  br label %38

37:                                               ; preds = %31, %26
  store i32 0, ptr %7, align 4, !tbaa !89
  store i8 1, ptr %9, align 1, !tbaa !129
  br label %38

38:                                               ; preds = %37, %34
  %39 = load ptr, ptr %5, align 8, !tbaa !95
  %40 = getelementptr inbounds nuw %struct.connectdata, ptr %39, i32 0, i32 58
  %41 = load i8, ptr %40, align 1, !tbaa !140
  %42 = icmp ne i8 %41, 0
  br i1 %42, label %49, label %43

43:                                               ; preds = %38
  %44 = load ptr, ptr %5, align 8, !tbaa !95
  %45 = call zeroext i1 @Curl_conn_is_connected(ptr noundef %44, i32 noundef 1)
  br i1 %45, label %46, label %49

46:                                               ; preds = %43
  %47 = load ptr, ptr %4, align 8, !tbaa !99
  %48 = call i32 @Curl_conn_shutdown(ptr noundef %47, i32 noundef 1, ptr noundef %10)
  store i32 %48, ptr %8, align 4, !tbaa !89
  br label %50

49:                                               ; preds = %43, %38
  store i32 0, ptr %8, align 4, !tbaa !89
  store i8 1, ptr %10, align 1, !tbaa !129
  br label %50

50:                                               ; preds = %49, %46
  %51 = load i32, ptr %7, align 4, !tbaa !89
  %52 = icmp ne i32 %51, 0
  br i1 %52, label %64, label %53

53:                                               ; preds = %50
  %54 = load i32, ptr %8, align 4, !tbaa !89
  %55 = icmp ne i32 %54, 0
  br i1 %55, label %64, label %56

56:                                               ; preds = %53
  %57 = load i8, ptr %9, align 1, !tbaa !129, !range !130, !noundef !131
  %58 = trunc i8 %57 to i1
  br i1 %58, label %59, label %62

59:                                               ; preds = %56
  %60 = load i8, ptr %10, align 1, !tbaa !129, !range !130, !noundef !131
  %61 = trunc i8 %60 to i1
  br label %62

62:                                               ; preds = %59, %56
  %63 = phi i1 [ false, %56 ], [ %61, %59 ]
  br label %64

64:                                               ; preds = %62, %53, %50
  %65 = phi i1 [ true, %53 ], [ true, %50 ], [ %63, %62 ]
  %66 = load ptr, ptr %6, align 8, !tbaa !169
  %67 = zext i1 %65 to i8
  store i8 %67, ptr %66, align 1, !tbaa !129
  %68 = load ptr, ptr %6, align 8, !tbaa !169
  %69 = load i8, ptr %68, align 1, !tbaa !129, !range !130, !noundef !131
  %70 = trunc i8 %69 to i1
  br i1 %70, label %71, label %77

71:                                               ; preds = %64
  %72 = load ptr, ptr %5, align 8, !tbaa !95
  %73 = getelementptr inbounds nuw %struct.connectdata, ptr %72, i32 0, i32 32
  %74 = load i64, ptr %73, align 8
  %75 = and i64 %74, -4294967297
  %76 = or i64 %75, 4294967296
  store i64 %76, ptr %73, align 8
  br label %77

77:                                               ; preds = %71, %64
  store i32 0, ptr %11, align 4
  br label %78

78:                                               ; preds = %77, %24
  call void @llvm.lifetime.end.p0(i64 1, ptr %10) #7
  call void @llvm.lifetime.end.p0(i64 1, ptr %9) #7
  call void @llvm.lifetime.end.p0(i64 4, ptr %8) #7
  call void @llvm.lifetime.end.p0(i64 4, ptr %7) #7
  %79 = load i32, ptr %11, align 4
  switch i32 %79, label %81 [
    i32 0, label %80
    i32 1, label %80
  ]

80:                                               ; preds = %78, %78
  ret void

81:                                               ; preds = %78
  unreachable
}