; Function Attrs: nounwind uwtable
define internal fastcc void @cpool_run_conn_shutdown(ptr noundef %0, ptr noundef %1, ptr noundef nonnull writeonly captures(none) initializes((0, 1)) %2) unnamed_addr #0 {
  %4 = alloca i8, align 1
  %5 = alloca i8, align 1
  call void @llvm.lifetime.start.p0(i64 1, ptr nonnull %4) #8
  call void @llvm.lifetime.start.p0(i64 1, ptr nonnull %5) #8
  %6 = getelementptr inbounds nuw i8, ptr %1, i64 952
  %7 = load i64, ptr %6, align 8
  %8 = and i64 %7, 2147483648
  %.not.i = icmp eq i64 %8, 0
  br i1 %.not.i, label %9, label %cpool_run_conn_shutdown_handler.exit

9:                                                ; preds = %3
  %10 = getelementptr inbounds nuw i8, ptr %1, i64 72
  %11 = load ptr, ptr %10, align 8, !tbaa !147
  %.not14.i = icmp eq ptr %11, null
  br i1 %.not14.i, label %13, label %12

12:                                               ; preds = %9
  tail call void @Curl_resolv_unlink(ptr noundef %0, ptr noundef nonnull %10) #8
  br label %13

13:                                               ; preds = %12, %9
  tail call void @Curl_http_auth_cleanup_ntlm(ptr noundef nonnull %1) #8
  %14 = getelementptr inbounds nuw i8, ptr %1, i64 960
  %15 = load ptr, ptr %14, align 8, !tbaa !148
  %.not15.i = icmp eq ptr %15, null
  br i1 %.not15.i, label %24, label %16

16:                                               ; preds = %13
  %17 = getelementptr inbounds nuw i8, ptr %15, i64 96
  %18 = load ptr, ptr %17, align 8, !tbaa !149
  %.not16.i = icmp eq ptr %18, null
  br i1 %.not16.i, label %24, label %19

19:                                               ; preds = %16
  %20 = load i64, ptr %6, align 8
  %21 = and i64 %20, 1073741824
  %22 = icmp ne i64 %21, 0
  %23 = tail call i32 %18(ptr noundef %0, ptr noundef nonnull %1, i1 noundef zeroext %22) #8
  br label %24

24:                                               ; preds = %19, %16, %13
  tail call void @Curl_resolver_cancel(ptr noundef %0) #8
  %25 = load i64, ptr %6, align 8
  %26 = or i64 %25, 2147483648
  store i64 %26, ptr %6, align 8
  br label %cpool_run_conn_shutdown_handler.exit

cpool_run_conn_shutdown_handler.exit:             ; preds = %3, %24
  %27 = phi i64 [ %7, %3 ], [ %26, %24 ]
  %28 = and i64 %27, 4294967296
  %.not = icmp eq i64 %28, 0
  br i1 %.not, label %30, label %29

29:                                               ; preds = %cpool_run_conn_shutdown_handler.exit
  store i8 1, ptr %2, align 1, !tbaa !145
  br label %58

30:                                               ; preds = %cpool_run_conn_shutdown_handler.exit
  %31 = getelementptr inbounds nuw i8, ptr %1, i64 1413
  %32 = load i8, ptr %31, align 1, !tbaa !138
  %.not16 = icmp eq i8 %32, 0
  br i1 %.not16, label %33, label %38

33:                                               ; preds = %30
  %34 = tail call zeroext i1 @Curl_conn_is_connected(ptr noundef nonnull %1, i32 noundef 0) #8
  br i1 %34, label %35, label %38

35:                                               ; preds = %33
  %36 = call i32 @Curl_conn_shutdown(ptr noundef %0, i32 noundef 0, ptr noundef nonnull %4) #8
  %37 = icmp ne i32 %36, 0
  br label %39

38:                                               ; preds = %33, %30
  store i8 1, ptr %4, align 1, !tbaa !145
  br label %39

39:                                               ; preds = %38, %35
  %.015 = phi i1 [ false, %38 ], [ %37, %35 ]
  %40 = load i8, ptr %31, align 1, !tbaa !138
  %.not17 = icmp eq i8 %40, 0
  br i1 %.not17, label %41, label %46

41:                                               ; preds = %39
  %42 = call zeroext i1 @Curl_conn_is_connected(ptr noundef nonnull %1, i32 noundef 1) #8
  br i1 %42, label %43, label %46

43:                                               ; preds = %41
  %44 = call i32 @Curl_conn_shutdown(ptr noundef %0, i32 noundef 1, ptr noundef nonnull %5) #8
  %45 = icmp ne i32 %44, 0
  br label %47

46:                                               ; preds = %41, %39
  store i8 1, ptr %5, align 1, !tbaa !145
  br label %47

47:                                               ; preds = %46, %43
  %.0 = phi i1 [ false, %46 ], [ %45, %43 ]
  %or.cond = select i1 %.015, i1 true, i1 %.0
  br i1 %or.cond, label %.critedge, label %48

48:                                               ; preds = %47
  %49 = load i8, ptr %4, align 1, !tbaa !145, !range !110, !noundef !111
  %50 = trunc nuw i8 %49 to i1
  %51 = load i8, ptr %5, align 1, !range !110
  %52 = trunc nuw i8 %51 to i1
  %53 = select i1 %50, i1 %52, i1 false
  %54 = zext i1 %53 to i8
  store i8 %54, ptr %2, align 1, !tbaa !145
  br i1 %53, label %55, label %58

.critedge:                                        ; preds = %47
  store i8 1, ptr %2, align 1, !tbaa !145
  br label %55

55:                                               ; preds = %.critedge, %48
  %56 = load i64, ptr %6, align 8
  %57 = or i64 %56, 4294967296
  store i64 %57, ptr %6, align 8
  br label %58

58:                                               ; preds = %48, %55, %29
  call void @llvm.lifetime.end.p0(i64 1, ptr nonnull %5) #8
  call void @llvm.lifetime.end.p0(i64 1, ptr nonnull %4) #8
  ret void
}